target datalayout = "e-m:e-p270:32:32-p271:32:32-p272:64:64-i64:64-i128:128-f80:128-n8:16:32:64-S128"
target triple = "x86_64-pc-linux-gnu"

%struct.SimpleDateData = type { i32, i32, i64, float, i32, i32 }
%struct.ComplexDateData = type { i32, i32, i64, float, i32, i32, i32, i32, i64 }

; Function Attrs: nounwind sspstrong uwtable
define internal void @d_lite_gc_mark(ptr noundef %0) #0 {
  %2 = alloca ptr, align 8
  %3 = alloca ptr, align 8
  store ptr %0, ptr %2, align 8, !tbaa !59
  call void @llvm.lifetime.start.p0(i64 8, ptr %3) #23
  %4 = load ptr, ptr %2, align 8, !tbaa !59
  store ptr %4, ptr %3, align 8, !tbaa !27
  %5 = load ptr, ptr %3, align 8, !tbaa !27
  %6 = load i32, ptr %5, align 8, !tbaa !38
  %7 = and i32 %6, 128
  %8 = icmp ne i32 %7, 0
  br i1 %8, label %13, label %9

9:                                                ; preds = %1
  %10 = load ptr, ptr %3, align 8, !tbaa !27
  %11 = getelementptr inbounds nuw %struct.SimpleDateData, ptr %10, i32 0, i32 2
  %12 = load i64, ptr %11, align 8, !tbaa !38
  call void @rb_gc_mark(i64 noundef %12)
  br label %20

13:                                               ; preds = %1
  %14 = load ptr, ptr %3, align 8, !tbaa !27
  %15 = getelementptr inbounds nuw %struct.ComplexDateData, ptr %14, i32 0, i32 2
  %16 = load i64, ptr %15, align 8, !tbaa !38
  call void @rb_gc_mark(i64 noundef %16)
  %17 = load ptr, ptr %3, align 8, !tbaa !27
  %18 = getelementptr inbounds nuw %struct.ComplexDateData, ptr %17, i32 0, i32 8
  %19 = load i64, ptr %18, align 8, !tbaa !38
  call void @rb_gc_mark(i64 noundef %19)
  br label %20

20:                                               ; preds = %13, %9
  call void @llvm.lifetime.end.p0(i64 8, ptr %3) #23
  ret void
}