; Function Attrs: nounwind sspstrong uwtable
define internal void @d_lite_gc_mark(ptr noundef readonly captures(none) %0) #0 {
  %2 = load i32, ptr %0, align 8, !tbaa !47
  %3 = and i32 %2, 128
  %.not = icmp eq i32 %3, 0
  %4 = getelementptr inbounds nuw i8, ptr %0, i64 8
  %5 = load i64, ptr %4, align 8, !tbaa !47
  tail call void @rb_gc_mark(i64 noundef %5) #21
  br i1 %.not, label %9, label %6

6:                                                ; preds = %1
  %7 = getelementptr inbounds nuw i8, ptr %0, i64 40
  %8 = load i64, ptr %7, align 8, !tbaa !47
  tail call void @rb_gc_mark(i64 noundef %8) #21
  br label %9

9:                                                ; preds = %1, %6
  ret void
}